-----BEGIN RSA PRIVATE KEY-----
MIICXQIBAAKBgQC/Jhsd9bJDERNpoZQGI/3eFGcrEJKVXlROdnx0w/yuXvbPsY4t
qPOYv6mAuyHtkcMu5vZZrVauY4n+pfoR1w+Jtx1XoXvWd8cqzjVeYMiyhXeODt2R
nGpb42PE057zIdAQVtHjDbieBGlGYQ65qXFFPd/uOaMq3MXE9c24pP41xQIDAQAB
AoGBAIhusWIz8RWPhZSaoGW1oMi3NV/2hzmXx4LtbS2Gib8HxxA9Qiby9VOsUVax
uqivpmm+rk0ZvMniACfC3feH0e0TwTxokO1HClZ92jKevqU3tloahl6H6ELhUY3r
29Z5MlsBwnxNTpI2AufBRacZt7EcojaglGtIs1oBip6/fjrBAkEA8bRrLd3+k6vU
a15ZHdrLRAI9ViT5tpswHUMGis1kMtDj8uqQbt19hukiijW0oBDArURYFVpXbbmV
ubkri20McQJBAMp0PCcZkTRxmhVR3CDdhJ+WPZQW1ZA7jK1ceMtbRf9qgR0YGesS
DegvqgOpfJDDf9cP/xgieTQXZPS+pLhBeJUCQFUc+VkPgWQy7/xXHv6aW1W5jCvX
nW+mOk0zmwwpw4z5bivOWcoQiPGHCzisLMzo2VCqbnIme/8RiR37jM/uOKECQQC8
s3yBwT3rkNtaddNkurRr/yBkUKg8aJTl3WQlv2xN9lpj4Nv/k/NscEjaYvZdBCu7
LAjL2Q35tLh/utZTe4rFAkAVZ1QNsmvQrjSUXX22q0TC0Xumaq6JVHw4lYqkBzqn
ymqwam71DFSj/Rry5R5ZJ7+x2EBr0CF6hx7rdciC6eTW
-----END RSA PRIVATE KEY-----
Certificate:
    Data:
        Version: 3 (0x2)
        Serial Number: 1 (0x1)
        Signature Algorithm: sha1WithRSAEncryption
        Issuer: C=US, ST=California, L=Fairfield, O=Enterprise Readiness, Inc., CN=Root CA/emailAddress=dhanks@gmail.com
        Validity
            Not Before: Jul 26 02:39:35 2005 GMT
            Not After : Jul 26 02:39:35 2006 GMT
        Subject: CN=Client Certificate, ST=California, C=US/emailAddress=dhanks@gmail.com, O=Enterprise Readiness, Inc.
        Subject Public Key Info:
            Public Key Algorithm: rsaEncryption
            RSA Public Key: (1024 bit)
                Modulus (1024 bit):
                    00:bf:26:1b:1d:f5:b2:43:11:13:69:a1:94:06:23:
                    fd:de:14:67:2b:10:92:95:5e:54:4e:76:7c:74:c3:
                    fc:ae:5e:f6:cf:b1:8e:2d:a8:f3:98:bf:a9:80:bb:
                    21:ed:91:c3:2e:e6:f6:59:ad:56:ae:63:89:fe:a5:
                    fa:11:d7:0f:89:b7:1d:57:a1:7b:d6:77:c7:2a:ce:
                    35:5e:60:c8:b2:85:77:8e:0e:dd:91:9c:6a:5b:e3:
                    63:c4:d3:9e:f3:21:d0:10:56:d1:e3:0d:b8:9e:04:
                    69:46:61:0e:b9:a9:71:45:3d:df:ee:39:a3:2a:dc:
                    c5:c4:f5:cd:b8:a4:fe:35:c5
                Exponent: 65537 (0x10001)
        X509v3 extensions:
            X509v3 Basic Constraints: 
                CA:TRUE
            X509v3 Subject Key Identifier: 
                DE:E0:F1:DC:20:3F:55:8B:FF:79:0D:90:B7:A7:8E:24:6A:64:38:90
    Signature Algorithm: sha1WithRSAEncryption
        b5:54:3d:a8:8f:4f:a4:6e:ec:6a:00:02:25:5c:0d:14:10:e5:
        6b:45:38:9c:62:7d:03:cd:ec:a3:dd:42:4c:e2:21:12:52:9c:
        b8:ea:1e:45:e7:ae:73:6c:e2:93:a3:98:4b:18:a3:93:30:49:
        13:f3:d3:c9:af:f1:68:d7:ba:e2:94:2b:fe:e3:08:c3:f3:6c:
        1f:21:f1:dd:3f:3e:0c:54:60:b3:b9:c0:e8:5e:8d:32:2b:4c:
        5b:46:6d:99:ad:36:5e:f3:05:50:5f:5b:a7:51:cf:c7:ae:41:
        c4:e9:0c:1e:47:6a:4c:d1:b9:6e:50:9f:71:7a:90:8f:05:18:
        81:de
-----BEGIN CERTIFICATE-----
MIICujCCAiOgAwIBAgIBATANBgkqhkiG9w0BAQUFADCBjjELMAkGA1UEBhMCVVMx
EzARBgNVBAgTCkNhbGlmb3JuaWExEjAQBgNVBAcTCUZhaXJmaWVsZDEjMCEGA1UE
ChMaRW50ZXJwcmlzZSBSZWFkaW5lc3MsIEluYy4xEDAOBgNVBAMTB1Jvb3QgQ0Ex
HzAdBgkqhkiG9w0BCQEWEGRoYW5rc0BnbWFpbC5jb20wHhcNMDUwNzI2MDIzOTM1
WhcNMDYwNzI2MDIzOTM1WjCBhTEbMBkGA1UEAxMSQ2xpZW50IENlcnRpZmljYXRl
MRMwEQYDVQQIEwpDYWxpZm9ybmlhMQswCQYDVQQGEwJVUzEfMB0GCSqGSIb3DQEJ
ARYQZGhhbmtzQGdtYWlsLmNvbTEjMCEGA1UEChMaRW50ZXJwcmlzZSBSZWFkaW5l
c3MsIEluYy4wgZ8wDQYJKoZIhvcNAQEBBQADgY0AMIGJAoGBAL8mGx31skMRE2mh
lAYj/d4UZysQkpVeVE52fHTD/K5e9s+xji2o85i/qYC7Ie2Rwy7m9lmtVq5jif6l
+hHXD4m3HVehe9Z3xyrONV5gyLKFd44O3ZGcalvjY8TTnvMh0BBW0eMNuJ4EaUZh
DrmpcUU93+45oyrcxcT1zbik/jXFAgMBAAGjLzAtMAwGA1UdEwQFMAMBAf8wHQYD
VR0OBBYEFN7g8dwgP1WL/3kNkLenjiRqZDiQMA0GCSqGSIb3DQEBBQUAA4GBALVU
PaiPT6Ru7GoAAiVcDRQQ5WtFOJxifQPN7KPdQkziIRJSnLjqHkXnrnNs4pOjmEsY
o5MwSRPz08mv8WjXuuKUK/7jCMPzbB8h8d0/PgxUYLO5wOhejTIrTFtGbZmtNl7z
BVBfW6dRz8euQcTpDB5HakzRuW5Qn3F6kI8FGIHe
-----END CERTIFICATE-----
