-----BEGIN RSA PRIVATE KEY-----
MIICXAIBAAKBgQCya0ZOIZ6UnpfvsoUYFBrnX3Gk6EUYAu46nqvdzOiHbgQEuZLJ
B7aUswBaFOo62o7D1qc/e50noI1+aS0KgxzdhVwkakWQgGGl7Xq86nKx5Dv7uD3I
uLJFUsykXc5z/L0uwVoyic/JyqDQRlPjQEkjcOxmXFkfWTG8LQZQvcaBBQIDAQAB
AoGBAIlHIuQQ2Awv7mVebSt2pLCrbixdDnSIJLZzyXcyJyO00WC1TCxjQ+crxzSI
bSR1b21dZnfg661GyjeeQyqYcQbyPgUZX/xG22rs8L8DP/y74xX8NYZbRBEa+PUk
tDyM/QinuyMBZBdn/3ZWNhxvv01iDo/dUOfJhOxoIWB4RghNAkEA6oMcGkUhr6m1
381aiGIt/2O9hdCtWJzVkPnktF6nv+4cOIyIzGMKLSsINFVp9kTW4iJnxKVhvimB
csIP7QeDlwJBAMLEZ0xdwdpfA0R5Leim1znWTJadfIWYKyX+grDObc6aUMxLyI3A
sffS1Am/OR+i+FyMgQ7aD2bO3x7mpffhg8MCQEpjvqViqpXjesr8hCxhIIAz7mml
UWebkG+FpZPFtua+LHuPsNFM1WyQivC2637wRU3EZjBN2dyNo/94Kb8htA8CQDwL
60D7AuH9OveoWIQKs/4r2I7y3MofQOZE0iwKaIYyw0hI8Prq9rNN93tNziG3z9RQ
qRVYGzl5/AX93BtRFpsCQGfvKLWrSzLBwsGxy9LXph/pypDfL4ZB6PHpj2lH1d9b
VI+7I+/L0XPR57ETcwHmw9kx9Pp74hBlOrYFUP9bsrE=
-----END RSA PRIVATE KEY-----
Certificate:
    Data:
        Version: 3 (0x2)
        Serial Number: 2 (0x2)
        Signature Algorithm: sha1WithRSAEncryption
        Issuer: C=US, ST=California, L=Fairfield, O=Enterprise Readiness, Inc., CN=Root CA/emailAddress=dhanks@gmail.com
        Validity
            Not Before: Jul 26 02:39:36 2005 GMT
            Not After : Jul 26 02:39:36 2006 GMT
        Subject: CN=Server Certificate, ST=California, C=US/emailAddress=dhanks@gmail.com, O=Enterprise Readiness, Inc.
        Subject Public Key Info:
            Public Key Algorithm: rsaEncryption
            RSA Public Key: (1024 bit)
                Modulus (1024 bit):
                    00:b2:6b:46:4e:21:9e:94:9e:97:ef:b2:85:18:14:
                    1a:e7:5f:71:a4:e8:45:18:02:ee:3a:9e:ab:dd:cc:
                    e8:87:6e:04:04:b9:92:c9:07:b6:94:b3:00:5a:14:
                    ea:3a:da:8e:c3:d6:a7:3f:7b:9d:27:a0:8d:7e:69:
                    2d:0a:83:1c:dd:85:5c:24:6a:45:90:80:61:a5:ed:
                    7a:bc:ea:72:b1:e4:3b:fb:b8:3d:c8:b8:b2:45:52:
                    cc:a4:5d:ce:73:fc:bd:2e:c1:5a:32:89:cf:c9:ca:
                    a0:d0:46:53:e3:40:49:23:70:ec:66:5c:59:1f:59:
                    31:bc:2d:06:50:bd:c6:81:05
                Exponent: 65537 (0x10001)
        X509v3 extensions:
            X509v3 Basic Constraints: 
                CA:TRUE
            X509v3 Subject Key Identifier: 
                DC:8A:6D:9B:76:D5:0F:D7:3E:C2:5B:35:2F:D7:2B:F7:59:26:AA:06
    Signature Algorithm: sha1WithRSAEncryption
        91:64:8c:41:bc:fe:c4:53:d0:63:bf:7a:3f:86:82:3b:df:69:
        31:11:cd:4f:dc:00:bc:f7:58:cb:db:c5:73:9f:7a:31:a7:95:
        ad:6d:60:3c:a1:26:22:fd:dd:a4:13:e4:56:bc:bc:90:06:65:
        ec:08:8c:d0:a6:7a:5d:71:0e:19:d1:03:6e:d0:ea:ad:d9:91:
        44:3a:45:b4:ba:ff:63:b0:2e:a0:b2:62:ac:57:61:74:3b:af:
        e3:43:8d:b8:8f:e0:72:18:56:6b:f9:73:41:c2:b3:e6:8a:3e:
        e7:c9:bf:1d:e8:93:93:88:59:b2:c2:da:e2:d0:ff:75:3e:a4:
        b9:f9
-----BEGIN CERTIFICATE-----
MIICujCCAiOgAwIBAgIBAjANBgkqhkiG9w0BAQUFADCBjjELMAkGA1UEBhMCVVMx
EzARBgNVBAgTCkNhbGlmb3JuaWExEjAQBgNVBAcTCUZhaXJmaWVsZDEjMCEGA1UE
ChMaRW50ZXJwcmlzZSBSZWFkaW5lc3MsIEluYy4xEDAOBgNVBAMTB1Jvb3QgQ0Ex
HzAdBgkqhkiG9w0BCQEWEGRoYW5rc0BnbWFpbC5jb20wHhcNMDUwNzI2MDIzOTM2
WhcNMDYwNzI2MDIzOTM2WjCBhTEbMBkGA1UEAxMSU2VydmVyIENlcnRpZmljYXRl
MRMwEQYDVQQIEwpDYWxpZm9ybmlhMQswCQYDVQQGEwJVUzEfMB0GCSqGSIb3DQEJ
ARYQZGhhbmtzQGdtYWlsLmNvbTEjMCEGA1UEChMaRW50ZXJwcmlzZSBSZWFkaW5l
c3MsIEluYy4wgZ8wDQYJKoZIhvcNAQEBBQADgY0AMIGJAoGBALJrRk4hnpSel++y
hRgUGudfcaToRRgC7jqeq93M6IduBAS5kskHtpSzAFoU6jrajsPWpz97nSegjX5p
LQqDHN2FXCRqRZCAYaXterzqcrHkO/u4Pci4skVSzKRdznP8vS7BWjKJz8nKoNBG
U+NASSNw7GZcWR9ZMbwtBlC9xoEFAgMBAAGjLzAtMAwGA1UdEwQFMAMBAf8wHQYD
VR0OBBYEFNyKbZt21Q/XPsJbNS/XK/dZJqoGMA0GCSqGSIb3DQEBBQUAA4GBAJFk
jEG8/sRT0GO/ej+GgjvfaTERzU/cALz3WMvbxXOfejGnla1tYDyhJiL93aQT5Fa8
vJAGZewIjNCmel1xDhnRA27Q6q3ZkUQ6RbS6/2OwLqCyYqxXYXQ7r+NDjbiP4HIY
Vmv5c0HCs+aKPufJvx3ok5OIWbLC2uLQ/3U+pLn5
-----END CERTIFICATE-----
